target datalayout = "e-m:e-p270:32:32-p271:32:32-p272:64:64-i64:64-i128:128-f80:128-n8:16:32:64-S128"
target triple = "x86_64-pc-linux-gnu"

; Function Attrs: inlinehint nounwind uwtable
define internal void @memset_bpc(ptr noundef %0, i32 noundef %1, i32 noundef %2) #5 {
  %4 = alloca ptr, align 8
  %5 = alloca i32, align 4
  %6 = alloca i32, align 4
  %7 = alloca i32, align 4
  store ptr %0, ptr %4, align 8, !tbaa !14
  store i32 %1, ptr %5, align 4, !tbaa !19
  store i32 %2, ptr %6, align 4, !tbaa !19
  call void @llvm.lifetime.start.p0(i64 4, ptr %7) #9
  store i32 0, ptr %7, align 4, !tbaa !19
  br label %8

8:                                                ; preds = %19, %3
  %9 = load i32, ptr %7, align 4, !tbaa !19
  %10 = load i32, ptr %6, align 4, !tbaa !19
  %11 = icmp slt i32 %9, %10
  br i1 %11, label %12, label %22

12:                                               ; preds = %8
  %13 = load i32, ptr %5, align 4, !tbaa !19
  %14 = trunc i32 %13 to i16
  %15 = load ptr, ptr %4, align 8, !tbaa !14
  %16 = load i32, ptr %7, align 4, !tbaa !19
  %17 = sext i32 %16 to i64
  %18 = getelementptr inbounds i16, ptr %15, i64 %17
  store i16 %14, ptr %18, align 2, !tbaa !17
  br label %19

19:                                               ; preds = %12
  %20 = load i32, ptr %7, align 4, !tbaa !19
  %21 = add nsw i32 %20, 1
  store i32 %21, ptr %7, align 4, !tbaa !19
  br label %8, !llvm.loop !92

22:                                               ; preds = %8
  call void @llvm.lifetime.end.p0(i64 4, ptr %7) #9
  ret void
}

; Function Attrs: nounwind uwtable
define internal void @hor_up_32x32_c(ptr noundef %0, i64 noundef %1, ptr noundef %2, ptr noundef %3) #1 {
  %5 = alloca ptr, align 8
  %6 = alloca i64, align 8
  %7 = alloca ptr, align 8
  %8 = alloca ptr, align 8
  %9 = alloca ptr, align 8
  %10 = alloca ptr, align 8
  %11 = alloca i32, align 4
  %12 = alloca i32, align 4
  %13 = alloca [62 x i16], align 16
  store ptr %0, ptr %5, align 8, !tbaa !10
  store i64 %1, ptr %6, align 8, !tbaa !12
  store ptr %2, ptr %7, align 8, !tbaa !10
  store ptr %3, ptr %8, align 8, !tbaa !10
  call void @llvm.lifetime.start.p0(i64 8, ptr %9) #9
  %14 = load ptr, ptr %5, align 8, !tbaa !10
  store ptr %14, ptr %9, align 8, !tbaa !14
  call void @llvm.lifetime.start.p0(i64 8, ptr %10) #9
  %15 = load ptr, ptr %7, align 8, !tbaa !10
  store ptr %15, ptr %10, align 8, !tbaa !14
  call void @llvm.lifetime.start.p0(i64 4, ptr %11) #9
  call void @llvm.lifetime.start.p0(i64 4, ptr %12) #9
  call void @llvm.lifetime.start.p0(i64 124, ptr %13) #9
  %16 = load i64, ptr %6, align 8, !tbaa !12
  %17 = udiv i64 %16, 2
  store i64 %17, ptr %6, align 8, !tbaa !12
  store i32 0, ptr %11, align 4, !tbaa !19
  br label %18

18:                                               ; preds = %74, %4
  %19 = load i32, ptr %11, align 4, !tbaa !19
  %20 = icmp slt i32 %19, 30
  br i1 %20, label %21, label %77

21:                                               ; preds = %18
  %22 = load ptr, ptr %10, align 8, !tbaa !14
  %23 = load i32, ptr %11, align 4, !tbaa !19
  %24 = sext i32 %23 to i64
  %25 = getelementptr inbounds i16, ptr %22, i64 %24
  %26 = load i16, ptr %25, align 2, !tbaa !17
  %27 = zext i16 %26 to i32
  %28 = load ptr, ptr %10, align 8, !tbaa !14
  %29 = load i32, ptr %11, align 4, !tbaa !19
  %30 = add nsw i32 %29, 1
  %31 = sext i32 %30 to i64
  %32 = getelementptr inbounds i16, ptr %28, i64 %31
  %33 = load i16, ptr %32, align 2, !tbaa !17
  %34 = zext i16 %33 to i32
  %35 = add nsw i32 %27, %34
  %36 = add nsw i32 %35, 1
  %37 = ashr i32 %36, 1
  %38 = trunc i32 %37 to i16
  %39 = load i32, ptr %11, align 4, !tbaa !19
  %40 = mul nsw i32 %39, 2
  %41 = sext i32 %40 to i64
  %42 = getelementptr inbounds [62 x i16], ptr %13, i64 0, i64 %41
  store i16 %38, ptr %42, align 2, !tbaa !17
  %43 = load ptr, ptr %10, align 8, !tbaa !14
  %44 = load i32, ptr %11, align 4, !tbaa !19
  %45 = sext i32 %44 to i64
  %46 = getelementptr inbounds i16, ptr %43, i64 %45
  %47 = load i16, ptr %46, align 2, !tbaa !17
  %48 = zext i16 %47 to i32
  %49 = load ptr, ptr %10, align 8, !tbaa !14
  %50 = load i32, ptr %11, align 4, !tbaa !19
  %51 = add nsw i32 %50, 1
  %52 = sext i32 %51 to i64
  %53 = getelementptr inbounds i16, ptr %49, i64 %52
  %54 = load i16, ptr %53, align 2, !tbaa !17
  %55 = zext i16 %54 to i32
  %56 = mul nsw i32 %55, 2
  %57 = add nsw i32 %48, %56
  %58 = load ptr, ptr %10, align 8, !tbaa !14
  %59 = load i32, ptr %11, align 4, !tbaa !19
  %60 = add nsw i32 %59, 2
  %61 = sext i32 %60 to i64
  %62 = getelementptr inbounds i16, ptr %58, i64 %61
  %63 = load i16, ptr %62, align 2, !tbaa !17
  %64 = zext i16 %63 to i32
  %65 = add nsw i32 %57, %64
  %66 = add nsw i32 %65, 2
  %67 = ashr i32 %66, 2
  %68 = trunc i32 %67 to i16
  %69 = load i32, ptr %11, align 4, !tbaa !19
  %70 = mul nsw i32 %69, 2
  %71 = add nsw i32 %70, 1
  %72 = sext i32 %71 to i64
  %73 = getelementptr inbounds [62 x i16], ptr %13, i64 0, i64 %72
  store i16 %68, ptr %73, align 2, !tbaa !17
  br label %74

74:                                               ; preds = %21
  %75 = load i32, ptr %11, align 4, !tbaa !19
  %76 = add nsw i32 %75, 1
  store i32 %76, ptr %11, align 4, !tbaa !19
  br label %18, !llvm.loop !83

77:                                               ; preds = %18
  %78 = load ptr, ptr %10, align 8, !tbaa !14
  %79 = getelementptr inbounds i16, ptr %78, i64 30
  %80 = load i16, ptr %79, align 2, !tbaa !17
  %81 = zext i16 %80 to i32
  %82 = load ptr, ptr %10, align 8, !tbaa !14
  %83 = getelementptr inbounds i16, ptr %82, i64 31
  %84 = load i16, ptr %83, align 2, !tbaa !17
  %85 = zext i16 %84 to i32
  %86 = add nsw i32 %81, %85
  %87 = add nsw i32 %86, 1
  %88 = ashr i32 %87, 1
  %89 = trunc i32 %88 to i16
  %90 = getelementptr inbounds [62 x i16], ptr %13, i64 0, i64 60
  store i16 %89, ptr %90, align 8, !tbaa !17
  %91 = load ptr, ptr %10, align 8, !tbaa !14
  %92 = getelementptr inbounds i16, ptr %91, i64 30
  %93 = load i16, ptr %92, align 2, !tbaa !17
  %94 = zext i16 %93 to i32
  %95 = load ptr, ptr %10, align 8, !tbaa !14
  %96 = getelementptr inbounds i16, ptr %95, i64 31
  %97 = load i16, ptr %96, align 2, !tbaa !17
  %98 = zext i16 %97 to i32
  %99 = mul nsw i32 %98, 3
  %100 = add nsw i32 %94, %99
  %101 = add nsw i32 %100, 2
  %102 = ashr i32 %101, 2
  %103 = trunc i32 %102 to i16
  %104 = getelementptr inbounds [62 x i16], ptr %13, i64 0, i64 61
  store i16 %103, ptr %104, align 2, !tbaa !17
  store i32 0, ptr %12, align 4, !tbaa !19
  br label %105

105:                                              ; preds = %120, %77
  %106 = load i32, ptr %12, align 4, !tbaa !19
  %107 = icmp slt i32 %106, 16
  br i1 %107, label %108, label %123

108:                                              ; preds = %105
  %109 = load ptr, ptr %9, align 8, !tbaa !14
  %110 = load i32, ptr %12, align 4, !tbaa !19
  %111 = sext i32 %110 to i64
  %112 = load i64, ptr %6, align 8, !tbaa !12
  %113 = mul nsw i64 %111, %112
  %114 = getelementptr inbounds i16, ptr %109, i64 %113
  %115 = getelementptr inbounds [62 x i16], ptr %13, i64 0, i64 0
  %116 = load i32, ptr %12, align 4, !tbaa !19
  %117 = mul nsw i32 %116, 2
  %118 = sext i32 %117 to i64
  %119 = getelementptr inbounds i16, ptr %115, i64 %118
  call void @llvm.memcpy.p0.p0.i64(ptr align 2 %114, ptr align 2 %119, i64 64, i1 false)
  br label %120

120:                                              ; preds = %108
  %121 = load i32, ptr %12, align 4, !tbaa !19
  %122 = add nsw i32 %121, 1
  store i32 %122, ptr %12, align 4, !tbaa !19
  br label %105, !llvm.loop !84

123:                                              ; preds = %105
  store i32 16, ptr %12, align 4, !tbaa !19
  br label %124

124:                                              ; preds = %165, %123
  %125 = load i32, ptr %12, align 4, !tbaa !19
  %126 = icmp slt i32 %125, 32
  br i1 %126, label %127, label %168

127:                                              ; preds = %124
  %128 = load ptr, ptr %9, align 8, !tbaa !14
  %129 = load i32, ptr %12, align 4, !tbaa !19
  %130 = sext i32 %129 to i64
  %131 = load i64, ptr %6, align 8, !tbaa !12
  %132 = mul nsw i64 %130, %131
  %133 = getelementptr inbounds i16, ptr %128, i64 %132
  %134 = getelementptr inbounds [62 x i16], ptr %13, i64 0, i64 0
  %135 = load i32, ptr %12, align 4, !tbaa !19
  %136 = mul nsw i32 %135, 2
  %137 = sext i32 %136 to i64
  %138 = getelementptr inbounds i16, ptr %134, i64 %137
  %139 = load i32, ptr %12, align 4, !tbaa !19
  %140 = mul nsw i32 %139, 2
  %141 = sub nsw i32 62, %140
  %142 = sext i32 %141 to i64
  %143 = mul i64 %142, 2
  call void @llvm.memcpy.p0.p0.i64(ptr align 2 %133, ptr align 2 %138, i64 %143, i1 false)
  %144 = load ptr, ptr %9, align 8, !tbaa !14
  %145 = load i32, ptr %12, align 4, !tbaa !19
  %146 = sext i32 %145 to i64
  %147 = load i64, ptr %6, align 8, !tbaa !12
  %148 = mul nsw i64 %146, %147
  %149 = getelementptr inbounds i16, ptr %144, i64 %148
  %150 = getelementptr inbounds i16, ptr %149, i64 64
  %151 = getelementptr inbounds i16, ptr %150, i64 -2
  %152 = load i32, ptr %12, align 4, !tbaa !19
  %153 = mul nsw i32 %152, 2
  %154 = sext i32 %153 to i64
  %155 = sub i64 0, %154
  %156 = getelementptr inbounds i16, ptr %151, i64 %155
  %157 = load ptr, ptr %10, align 8, !tbaa !14
  %158 = getelementptr inbounds i16, ptr %157, i64 31
  %159 = load i16, ptr %158, align 2, !tbaa !17
  %160 = zext i16 %159 to i32
  %161 = load i32, ptr %12, align 4, !tbaa !19
  %162 = mul nsw i32 %161, 2
  %163 = add nsw i32 2, %162
  %164 = sub nsw i32 %163, 32
  call void @memset_bpc(ptr noundef %156, i32 noundef %160, i32 noundef %164)
  br label %165

165:                                              ; preds = %127
  %166 = load i32, ptr %12, align 4, !tbaa !19
  %167 = add nsw i32 %166, 1
  store i32 %167, ptr %12, align 4, !tbaa !19
  br label %124, !llvm.loop !85

168:                                              ; preds = %124
  call void @llvm.lifetime.end.p0(i64 124, ptr %13) #9
  call void @llvm.lifetime.end.p0(i64 4, ptr %12) #9
  call void @llvm.lifetime.end.p0(i64 4, ptr %11) #9
  call void @llvm.lifetime.end.p0(i64 8, ptr %10) #9
  call void @llvm.lifetime.end.p0(i64 8, ptr %9) #9
  ret void
}