; Function Attrs: nofree norecurse nosync nounwind memory(argmem: readwrite) uwtable
define internal void @hor_up_32x32_c(ptr noundef writeonly captures(none) %0, i64 noundef %1, ptr noundef readonly captures(none) %2, ptr readnone captures(none) %3) #2 {
  %5 = alloca [62 x i16], align 16
  call void @llvm.lifetime.start.p0(i64 124, ptr nonnull %5) #12
  %.pre = load i16, ptr %2, align 2, !tbaa !9
  %invariant.gep = getelementptr inbounds nuw i8, ptr %2, i64 4
  br label %6

6:                                                ; preds = %4, %6
  %7 = phi i16 [ %.pre, %4 ], [ %10, %6 ]
  %indvars.iv = phi i64 [ 0, %4 ], [ %indvars.iv.next, %6 ]
  %8 = zext i16 %7 to i32
  %indvars.iv.next = add nuw nsw i64 %indvars.iv, 1
  %9 = getelementptr inbounds nuw i16, ptr %2, i64 %indvars.iv.next
  %10 = load i16, ptr %9, align 2, !tbaa !9
  %11 = zext i16 %10 to i32
  %12 = add nuw nsw i32 %8, 1
  %13 = add nuw nsw i32 %12, %11
  %14 = lshr i32 %13, 1
  %15 = trunc nuw i32 %14 to i16
  %16 = shl nuw nsw i64 %indvars.iv, 1
  %17 = getelementptr inbounds nuw [62 x i16], ptr %5, i64 0, i64 %16
  store i16 %15, ptr %17, align 4, !tbaa !9
  %18 = shl nuw nsw i32 %11, 1
  %gep = getelementptr inbounds nuw i16, ptr %invariant.gep, i64 %indvars.iv
  %19 = load i16, ptr %gep, align 2, !tbaa !9
  %20 = zext i16 %19 to i32
  %21 = add nuw nsw i32 %8, 2
  %22 = add nuw nsw i32 %21, %18
  %23 = add nuw nsw i32 %22, %20
  %24 = lshr i32 %23, 2
  %25 = trunc nuw i32 %24 to i16
  %26 = or disjoint i64 %16, 1
  %27 = getelementptr inbounds nuw [62 x i16], ptr %5, i64 0, i64 %26
  store i16 %25, ptr %27, align 2, !tbaa !9
  %exitcond.not = icmp eq i64 %indvars.iv.next, 30
  br i1 %exitcond.not, label %28, label %6, !llvm.loop !74

28:                                               ; preds = %6
  %29 = lshr i64 %1, 1
  %30 = getelementptr inbounds nuw i8, ptr %2, i64 60
  %31 = load i16, ptr %30, align 2, !tbaa !9
  %32 = zext i16 %31 to i32
  %33 = getelementptr inbounds nuw i8, ptr %2, i64 62
  %34 = load i16, ptr %33, align 2, !tbaa !9
  %35 = zext i16 %34 to i32
  %36 = add nuw nsw i32 %32, 1
  %37 = add nuw nsw i32 %36, %35
  %38 = lshr i32 %37, 1
  %39 = trunc nuw i32 %38 to i16
  %40 = getelementptr inbounds nuw i8, ptr %5, i64 120
  store i16 %39, ptr %40, align 8, !tbaa !9
  %41 = mul nuw nsw i32 %35, 3
  %42 = add nuw nsw i32 %32, 2
  %43 = add nuw nsw i32 %42, %41
  %44 = lshr i32 %43, 2
  %45 = trunc nuw i32 %44 to i16
  %46 = getelementptr inbounds nuw i8, ptr %5, i64 122
  store i16 %45, ptr %46, align 2, !tbaa !9
  br label %47

47:                                               ; preds = %28, %47
  %indvars.iv44 = phi i64 [ 0, %28 ], [ %indvars.iv.next45, %47 ]
  %48 = mul nuw nsw i64 %29, %indvars.iv44
  %49 = getelementptr inbounds nuw i16, ptr %0, i64 %48
  %.idx = shl nuw nsw i64 %indvars.iv44, 2
  %50 = getelementptr inbounds nuw i8, ptr %5, i64 %.idx
  call void @llvm.memcpy.p0.p0.i64(ptr noundef nonnull align 2 dereferenceable(64) %49, ptr noundef nonnull align 4 dereferenceable(64) %50, i64 64, i1 false)
  %indvars.iv.next45 = add nuw nsw i64 %indvars.iv44, 1
  %exitcond47.not = icmp eq i64 %indvars.iv.next45, 16
  br i1 %exitcond47.not, label %.lr.ph.i, label %47, !llvm.loop !75

.lr.ph.i:                                         ; preds = %47, %memset_bpc.exit
  %indvars.iv48 = phi i64 [ %indvars.iv.next49, %memset_bpc.exit ], [ 16, %47 ]
  %51 = mul nuw nsw i64 %29, %indvars.iv48
  %52 = getelementptr inbounds nuw i16, ptr %0, i64 %51
  %53 = shl nuw nsw i64 %indvars.iv48, 1
  %54 = getelementptr inbounds nuw i16, ptr %5, i64 %53
  %55 = shl nuw nsw i64 %indvars.iv48, 2
  %56 = sub nuw nsw i64 124, %55
  call void @llvm.memcpy.p0.p0.i64(ptr align 2 %52, ptr nonnull align 4 %54, i64 %56, i1 false)
  %57 = getelementptr inbounds nuw i8, ptr %52, i64 124
  %58 = sub nsw i64 0, %53
  %59 = getelementptr inbounds i16, ptr %57, i64 %58
  %60 = load i16, ptr %33, align 2, !tbaa !9
  %61 = add nsw i64 %53, -31
  br label %62

62:                                               ; preds = %62, %.lr.ph.i
  %indvars.iv.i = phi i64 [ 0, %.lr.ph.i ], [ %indvars.iv.next.i, %62 ]
  %63 = getelementptr inbounds nuw i16, ptr %59, i64 %indvars.iv.i
  store i16 %60, ptr %63, align 2, !tbaa !9
  %indvars.iv.next.i = add nuw nsw i64 %indvars.iv.i, 1
  %exitcond.not.i = icmp eq i64 %indvars.iv.i, %61
  br i1 %exitcond.not.i, label %memset_bpc.exit, label %62, !llvm.loop !17

memset_bpc.exit:                                  ; preds = %62
  %indvars.iv.next49 = add nuw nsw i64 %indvars.iv48, 1
  %exitcond51.not = icmp eq i64 %indvars.iv.next49, 32
  br i1 %exitcond51.not, label %64, label %.lr.ph.i, !llvm.loop !76

64:                                               ; preds = %memset_bpc.exit
  call void @llvm.lifetime.end.p0(i64 124, ptr nonnull %5) #12
  ret void
}